; Function Attrs: mustprogress uwtable
define noundef i64 @_ZN13duckdb_snappy17CompressFromIOVecEPK5iovecmPNSt7__cxx1112basic_stringIcSt11char_traitsIcESaIcEEE(ptr noundef %0, i64 noundef %1, ptr noundef %2) local_unnamed_addr #3 personality ptr @__gxx_personality_v0 {
  %4 = alloca i64, align 8
  %.not.i = icmp eq i64 %1, 0
  br i1 %.not.i, label %._crit_edge.i, label %.lr.ph.i

._crit_edge.i:                                    ; preds = %.lr.ph.i, %3
  %.0.lcssa.i = phi i64 [ 0, %3 ], [ %20, %.lr.ph.i ]
  %5 = add i64 %.0.lcssa.i, 32
  %6 = udiv i64 %.0.lcssa.i, 6
  %7 = add i64 %5, %6
  tail call void @_ZNSt7__cxx1112basic_stringIcSt11char_traitsIcESaIcEE6resizeEmc(ptr noundef nonnull align 8 dereferenceable(32) %2, i64 noundef %7, i8 noundef signext 0)
  call void @llvm.lifetime.start.p0(i64 8, ptr nonnull %4) #27
  %8 = getelementptr inbounds nuw i8, ptr %2, i64 8
  %9 = load i64, ptr %8, align 8, !tbaa !77
  %10 = icmp eq i64 %9, 0
  br i1 %10, label %_ZN13duckdb_snappy15string_as_arrayEPNSt7__cxx1112basic_stringIcSt11char_traitsIcESaIcEEE.exit.i, label %11

11:                                               ; preds = %._crit_edge.i
  %12 = load ptr, ptr %2, align 8, !tbaa !80
  br label %_ZN13duckdb_snappy15string_as_arrayEPNSt7__cxx1112basic_stringIcSt11char_traitsIcESaIcEEE.exit.i

_ZN13duckdb_snappy15string_as_arrayEPNSt7__cxx1112basic_stringIcSt11char_traitsIcESaIcEEE.exit.i: ; preds = %11, %._crit_edge.i
  %13 = phi ptr [ %12, %11 ], [ null, %._crit_edge.i ]
  call void @_ZN13duckdb_snappy20RawCompressFromIOVecEPK5iovecmPcPmNS_18CompressionOptionsE(ptr noundef %0, i64 noundef %.0.lcssa.i, ptr noundef %13, ptr noundef nonnull %4, i32 1)
  %14 = load i64, ptr %4, align 8, !tbaa !6
  %15 = load i64, ptr %8, align 8, !tbaa !77
  %16 = icmp ugt i64 %14, %15
  br i1 %16, label %17, label %_ZN13duckdb_snappy17CompressFromIOVecEPK5iovecmPNSt7__cxx1112basic_stringIcSt11char_traitsIcESaIcEEENS_18CompressionOptionsE.exit

17:                                               ; preds = %_ZN13duckdb_snappy15string_as_arrayEPNSt7__cxx1112basic_stringIcSt11char_traitsIcESaIcEEE.exit.i
  tail call void (ptr, ...) @_ZSt24__throw_out_of_range_fmtPKcz(ptr noundef nonnull @.str.3, ptr noundef nonnull @.str.2, i64 noundef %14, i64 noundef %15) #30
  unreachable

.lr.ph.i:                                         ; preds = %3, %.lr.ph.i
  %.014.i = phi i64 [ %20, %.lr.ph.i ], [ 0, %3 ]
  %.01213.i = phi i64 [ %21, %.lr.ph.i ], [ 0, %3 ]
  %18 = getelementptr inbounds nuw %struct.iovec, ptr %0, i64 %.01213.i, i32 1
  %19 = load i64, ptr %18, align 8, !tbaa !65
  %20 = add i64 %19, %.014.i
  %21 = add nuw i64 %.01213.i, 1
  %exitcond.not.i = icmp eq i64 %21, %1
  br i1 %exitcond.not.i, label %._crit_edge.i, label %.lr.ph.i, !llvm.loop !93

_ZN13duckdb_snappy17CompressFromIOVecEPK5iovecmPNSt7__cxx1112basic_stringIcSt11char_traitsIcESaIcEEENS_18CompressionOptionsE.exit: ; preds = %_ZN13duckdb_snappy15string_as_arrayEPNSt7__cxx1112basic_stringIcSt11char_traitsIcESaIcEEE.exit.i
  store i64 %14, ptr %8, align 8, !tbaa !77
  %22 = load ptr, ptr %2, align 8, !tbaa !80
  %23 = getelementptr inbounds nuw i8, ptr %22, i64 %14
  store i8 0, ptr %23, align 1, !tbaa !3
  call void @llvm.lifetime.end.p0(i64 8, ptr nonnull %4) #27
  ret i64 %14
}